target datalayout = "e-m:e-p270:32:32-p271:32:32-p272:64:64-i64:64-i128:128-f80:128-n8:16:32:64-S128"
target triple = "x86_64-pc-linux-gnu"

%struct._object = type { %union.anon.41, ptr }
%union.anon.41 = type { i64 }
%struct.PyASCIIObject = type { %struct._object, i64, i64, %struct.anon.46 }
%struct.anon.46 = type { i16, i16 }

; Function Attrs: inlinehint nounwind uwtable
define internal i64 @ucs4lib_find(ptr noundef %0, i64 noundef %1, ptr noundef %2, i64 noundef %3, i64 noundef %4) #2 {
  %6 = alloca i64, align 8
  %7 = alloca ptr, align 8
  %8 = alloca i64, align 8
  %9 = alloca ptr, align 8
  %10 = alloca i64, align 8
  %11 = alloca i64, align 8
  %12 = alloca i64, align 8
  %13 = alloca i32, align 4
  store ptr %0, ptr %7, align 8, !tbaa !210
  store i64 %1, ptr %8, align 8, !tbaa !185
  store ptr %2, ptr %9, align 8, !tbaa !210
  store i64 %3, ptr %10, align 8, !tbaa !185
  store i64 %4, ptr %11, align 8, !tbaa !185
  call void @llvm.lifetime.start.p0(i64 8, ptr %12) #12
  %14 = load i64, ptr %10, align 8, !tbaa !185
  %15 = icmp eq i64 %14, 0
  br i1 %15, label %16, label %18

16:                                               ; preds = %5
  %17 = load i64, ptr %11, align 8, !tbaa !185
  store i64 %17, ptr %6, align 8
  store i32 1, ptr %13, align 4
  br label %32

18:                                               ; preds = %5
  %19 = load ptr, ptr %7, align 8, !tbaa !210
  %20 = load i64, ptr %8, align 8, !tbaa !185
  %21 = load ptr, ptr %9, align 8, !tbaa !210
  %22 = load i64, ptr %10, align 8, !tbaa !185
  %23 = call i64 @ucs4lib_fastsearch(ptr noundef %19, i64 noundef %20, ptr noundef %21, i64 noundef %22, i64 noundef -1, i32 noundef 1)
  store i64 %23, ptr %12, align 8, !tbaa !185
  %24 = load i64, ptr %12, align 8, !tbaa !185
  %25 = icmp sge i64 %24, 0
  br i1 %25, label %26, label %30

26:                                               ; preds = %18
  %27 = load i64, ptr %11, align 8, !tbaa !185
  %28 = load i64, ptr %12, align 8, !tbaa !185
  %29 = add i64 %28, %27
  store i64 %29, ptr %12, align 8, !tbaa !185
  br label %30

30:                                               ; preds = %26, %18
  %31 = load i64, ptr %12, align 8, !tbaa !185
  store i64 %31, ptr %6, align 8
  store i32 1, ptr %13, align 4
  br label %32

32:                                               ; preds = %30, %16
  call void @llvm.lifetime.end.p0(i64 8, ptr %12) #12
  %33 = load i64, ptr %6, align 8
  ret i64 %33
}

; Function Attrs: inlinehint nounwind uwtable
define internal i64 @ucs2lib_find(ptr noundef %0, i64 noundef %1, ptr noundef %2, i64 noundef %3, i64 noundef %4) #2 {
  %6 = alloca i64, align 8
  %7 = alloca ptr, align 8
  %8 = alloca i64, align 8
  %9 = alloca ptr, align 8
  %10 = alloca i64, align 8
  %11 = alloca i64, align 8
  %12 = alloca i64, align 8
  %13 = alloca i32, align 4
  store ptr %0, ptr %7, align 8, !tbaa !206
  store i64 %1, ptr %8, align 8, !tbaa !185
  store ptr %2, ptr %9, align 8, !tbaa !206
  store i64 %3, ptr %10, align 8, !tbaa !185
  store i64 %4, ptr %11, align 8, !tbaa !185
  call void @llvm.lifetime.start.p0(i64 8, ptr %12) #12
  %14 = load i64, ptr %10, align 8, !tbaa !185
  %15 = icmp eq i64 %14, 0
  br i1 %15, label %16, label %18

16:                                               ; preds = %5
  %17 = load i64, ptr %11, align 8, !tbaa !185
  store i64 %17, ptr %6, align 8
  store i32 1, ptr %13, align 4
  br label %32

18:                                               ; preds = %5
  %19 = load ptr, ptr %7, align 8, !tbaa !206
  %20 = load i64, ptr %8, align 8, !tbaa !185
  %21 = load ptr, ptr %9, align 8, !tbaa !206
  %22 = load i64, ptr %10, align 8, !tbaa !185
  %23 = call i64 @ucs2lib_fastsearch(ptr noundef %19, i64 noundef %20, ptr noundef %21, i64 noundef %22, i64 noundef -1, i32 noundef 1)
  store i64 %23, ptr %12, align 8, !tbaa !185
  %24 = load i64, ptr %12, align 8, !tbaa !185
  %25 = icmp sge i64 %24, 0
  br i1 %25, label %26, label %30

26:                                               ; preds = %18
  %27 = load i64, ptr %11, align 8, !tbaa !185
  %28 = load i64, ptr %12, align 8, !tbaa !185
  %29 = add i64 %28, %27
  store i64 %29, ptr %12, align 8, !tbaa !185
  br label %30

30:                                               ; preds = %26, %18
  %31 = load i64, ptr %12, align 8, !tbaa !185
  store i64 %31, ptr %6, align 8
  store i32 1, ptr %13, align 4
  br label %32

32:                                               ; preds = %30, %16
  call void @llvm.lifetime.end.p0(i64 8, ptr %12) #12
  %33 = load i64, ptr %6, align 8
  ret i64 %33
}

; Function Attrs: inlinehint nounwind uwtable
define internal i64 @ucs1lib_find(ptr noundef %0, i64 noundef %1, ptr noundef %2, i64 noundef %3, i64 noundef %4) #2 {
  %6 = alloca i64, align 8
  %7 = alloca ptr, align 8
  %8 = alloca i64, align 8
  %9 = alloca ptr, align 8
  %10 = alloca i64, align 8
  %11 = alloca i64, align 8
  %12 = alloca i64, align 8
  %13 = alloca i32, align 4
  store ptr %0, ptr %7, align 8, !tbaa !189
  store i64 %1, ptr %8, align 8, !tbaa !185
  store ptr %2, ptr %9, align 8, !tbaa !189
  store i64 %3, ptr %10, align 8, !tbaa !185
  store i64 %4, ptr %11, align 8, !tbaa !185
  call void @llvm.lifetime.start.p0(i64 8, ptr %12) #12
  %14 = load i64, ptr %10, align 8, !tbaa !185
  %15 = icmp eq i64 %14, 0
  br i1 %15, label %16, label %18

16:                                               ; preds = %5
  %17 = load i64, ptr %11, align 8, !tbaa !185
  store i64 %17, ptr %6, align 8
  store i32 1, ptr %13, align 4
  br label %32

18:                                               ; preds = %5
  %19 = load ptr, ptr %7, align 8, !tbaa !189
  %20 = load i64, ptr %8, align 8, !tbaa !185
  %21 = load ptr, ptr %9, align 8, !tbaa !189
  %22 = load i64, ptr %10, align 8, !tbaa !185
  %23 = call i64 @ucs1lib_fastsearch(ptr noundef %19, i64 noundef %20, ptr noundef %21, i64 noundef %22, i64 noundef -1, i32 noundef 1)
  store i64 %23, ptr %12, align 8, !tbaa !185
  %24 = load i64, ptr %12, align 8, !tbaa !185
  %25 = icmp sge i64 %24, 0
  br i1 %25, label %26, label %30

26:                                               ; preds = %18
  %27 = load i64, ptr %11, align 8, !tbaa !185
  %28 = load i64, ptr %12, align 8, !tbaa !185
  %29 = add i64 %28, %27
  store i64 %29, ptr %12, align 8, !tbaa !185
  br label %30

30:                                               ; preds = %26, %18
  %31 = load i64, ptr %12, align 8, !tbaa !185
  store i64 %31, ptr %6, align 8
  store i32 1, ptr %13, align 4
  br label %32

32:                                               ; preds = %30, %16
  call void @llvm.lifetime.end.p0(i64 8, ptr %12) #12
  %33 = load i64, ptr %6, align 8
  ret i64 %33
}

; Function Attrs: inlinehint nounwind uwtable
define internal i64 @asciilib_find(ptr noundef %0, i64 noundef %1, ptr noundef %2, i64 noundef %3, i64 noundef %4) #2 {
  %6 = alloca i64, align 8
  %7 = alloca ptr, align 8
  %8 = alloca i64, align 8
  %9 = alloca ptr, align 8
  %10 = alloca i64, align 8
  %11 = alloca i64, align 8
  %12 = alloca i64, align 8
  %13 = alloca i32, align 4
  store ptr %0, ptr %7, align 8, !tbaa !189
  store i64 %1, ptr %8, align 8, !tbaa !185
  store ptr %2, ptr %9, align 8, !tbaa !189
  store i64 %3, ptr %10, align 8, !tbaa !185
  store i64 %4, ptr %11, align 8, !tbaa !185
  call void @llvm.lifetime.start.p0(i64 8, ptr %12) #12
  %14 = load i64, ptr %10, align 8, !tbaa !185
  %15 = icmp eq i64 %14, 0
  br i1 %15, label %16, label %18

16:                                               ; preds = %5
  %17 = load i64, ptr %11, align 8, !tbaa !185
  store i64 %17, ptr %6, align 8
  store i32 1, ptr %13, align 4
  br label %32

18:                                               ; preds = %5
  %19 = load ptr, ptr %7, align 8, !tbaa !189
  %20 = load i64, ptr %8, align 8, !tbaa !185
  %21 = load ptr, ptr %9, align 8, !tbaa !189
  %22 = load i64, ptr %10, align 8, !tbaa !185
  %23 = call i64 @asciilib_fastsearch(ptr noundef %19, i64 noundef %20, ptr noundef %21, i64 noundef %22, i64 noundef -1, i32 noundef 1)
  store i64 %23, ptr %12, align 8, !tbaa !185
  %24 = load i64, ptr %12, align 8, !tbaa !185
  %25 = icmp sge i64 %24, 0
  br i1 %25, label %26, label %30

26:                                               ; preds = %18
  %27 = load i64, ptr %11, align 8, !tbaa !185
  %28 = load i64, ptr %12, align 8, !tbaa !185
  %29 = add i64 %28, %27
  store i64 %29, ptr %12, align 8, !tbaa !185
  br label %30

30:                                               ; preds = %26, %18
  %31 = load i64, ptr %12, align 8, !tbaa !185
  store i64 %31, ptr %6, align 8
  store i32 1, ptr %13, align 4
  br label %32

32:                                               ; preds = %30, %16
  call void @llvm.lifetime.end.p0(i64 8, ptr %12) #12
  %33 = load i64, ptr %6, align 8
  ret i64 %33
}

; Function Attrs: inlinehint nounwind uwtable
define internal i32 @PyUnicode_IS_ASCII(ptr noundef %0) #2 {
  %2 = alloca ptr, align 8
  store ptr %0, ptr %2, align 8, !tbaa !4
  %3 = load ptr, ptr %2, align 8, !tbaa !4
  %4 = getelementptr inbounds nuw %struct.PyASCIIObject, ptr %3, i32 0, i32 3
  %5 = getelementptr inbounds nuw %struct.anon.46, ptr %4, i32 0, i32 1
  %6 = load i16, ptr %5, align 2
  %7 = lshr i16 %6, 4
  %8 = and i16 %7, 1
  %9 = zext i16 %8 to i32
  ret i32 %9
}

; Function Attrs: nounwind uwtable
define internal i64 @anylib_find(i32 noundef %0, ptr noundef %1, ptr noundef %2, i64 noundef %3, ptr noundef %4, ptr noundef %5, i64 noundef %6, i64 noundef %7) #0 {
  %9 = alloca i64, align 8
  %10 = alloca i32, align 4
  %11 = alloca ptr, align 8
  %12 = alloca ptr, align 8
  %13 = alloca i64, align 8
  %14 = alloca ptr, align 8
  %15 = alloca ptr, align 8
  %16 = alloca i64, align 8
  %17 = alloca i64, align 8
  store i32 %0, ptr %10, align 4, !tbaa !190
  store ptr %1, ptr %11, align 8, !tbaa !4
  store ptr %2, ptr %12, align 8, !tbaa !180
  store i64 %3, ptr %13, align 8, !tbaa !185
  store ptr %4, ptr %14, align 8, !tbaa !4
  store ptr %5, ptr %15, align 8, !tbaa !180
  store i64 %6, ptr %16, align 8, !tbaa !185
  store i64 %7, ptr %17, align 8, !tbaa !185
  %18 = load i32, ptr %10, align 4, !tbaa !190
  switch i32 %18, label %55 [
    i32 1, label %19
    i32 2, label %41
    i32 4, label %48
  ]

19:                                               ; preds = %8
  %20 = load ptr, ptr %11, align 8, !tbaa !4
  %21 = call i32 @PyUnicode_IS_ASCII(ptr noundef %20)
  %22 = icmp ne i32 %21, 0
  br i1 %22, label %23, label %34

23:                                               ; preds = %19
  %24 = load ptr, ptr %14, align 8, !tbaa !4
  %25 = call i32 @PyUnicode_IS_ASCII(ptr noundef %24)
  %26 = icmp ne i32 %25, 0
  br i1 %26, label %27, label %34

27:                                               ; preds = %23
  %28 = load ptr, ptr %12, align 8, !tbaa !180
  %29 = load i64, ptr %13, align 8, !tbaa !185
  %30 = load ptr, ptr %15, align 8, !tbaa !180
  %31 = load i64, ptr %16, align 8, !tbaa !185
  %32 = load i64, ptr %17, align 8, !tbaa !185
  %33 = call i64 @asciilib_find(ptr noundef %28, i64 noundef %29, ptr noundef %30, i64 noundef %31, i64 noundef %32)
  store i64 %33, ptr %9, align 8
  br label %56

34:                                               ; preds = %23, %19
  %35 = load ptr, ptr %12, align 8, !tbaa !180
  %36 = load i64, ptr %13, align 8, !tbaa !185
  %37 = load ptr, ptr %15, align 8, !tbaa !180
  %38 = load i64, ptr %16, align 8, !tbaa !185
  %39 = load i64, ptr %17, align 8, !tbaa !185
  %40 = call i64 @ucs1lib_find(ptr noundef %35, i64 noundef %36, ptr noundef %37, i64 noundef %38, i64 noundef %39)
  store i64 %40, ptr %9, align 8
  br label %56

41:                                               ; preds = %8
  %42 = load ptr, ptr %12, align 8, !tbaa !180
  %43 = load i64, ptr %13, align 8, !tbaa !185
  %44 = load ptr, ptr %15, align 8, !tbaa !180
  %45 = load i64, ptr %16, align 8, !tbaa !185
  %46 = load i64, ptr %17, align 8, !tbaa !185
  %47 = call i64 @ucs2lib_find(ptr noundef %42, i64 noundef %43, ptr noundef %44, i64 noundef %45, i64 noundef %46)
  store i64 %47, ptr %9, align 8
  br label %56

48:                                               ; preds = %8
  %49 = load ptr, ptr %12, align 8, !tbaa !180
  %50 = load i64, ptr %13, align 8, !tbaa !185
  %51 = load ptr, ptr %15, align 8, !tbaa !180
  %52 = load i64, ptr %16, align 8, !tbaa !185
  %53 = load i64, ptr %17, align 8, !tbaa !185
  %54 = call i64 @ucs4lib_find(ptr noundef %49, i64 noundef %50, ptr noundef %51, i64 noundef %52, i64 noundef %53)
  store i64 %54, ptr %9, align 8
  br label %56

55:                                               ; preds = %8
  unreachable

56:                                               ; preds = %48, %41, %34, %27
  %57 = load i64, ptr %9, align 8
  ret i64 %57
}