; Function Attrs: nofree nounwind memory(read, argmem: readwrite) uwtable
define internal fastcc i64 @anylib_find(i32 noundef range(i32 0, 8) %0, ptr noundef readonly captures(none) %1, ptr noundef %2, i64 noundef %3, ptr noundef readonly captures(none) %4, ptr noundef %5, i64 noundef %6, i64 noundef %7) unnamed_addr #35 {
  switch i32 %0, label %39 [
    i32 1, label %9
    i32 2, label %27
    i32 4, label %33
  ]

9:                                                ; preds = %8
  %10 = getelementptr i8, ptr %1, i64 34
  %.val24 = load i16, ptr %10, align 2
  %11 = and i16 %.val24, 16
  %.not = icmp eq i16 %11, 0
  br i1 %.not, label %21, label %12

12:                                               ; preds = %9
  %13 = getelementptr i8, ptr %4, i64 34
  %.val = load i16, ptr %13, align 2
  %14 = and i16 %.val, 16
  %.not23 = icmp eq i16 %14, 0
  br i1 %.not23, label %21, label %15

15:                                               ; preds = %12
  %16 = icmp eq i64 %6, 0
  br i1 %16, label %asciilib_find.exit, label %17

17:                                               ; preds = %15
  %18 = tail call fastcc i64 @asciilib_fastsearch(ptr noundef %2, i64 noundef %3, ptr noundef %5, i64 noundef %6, i32 noundef 1)
  %19 = icmp slt i64 %18, 0
  %20 = select i1 %19, i64 0, i64 %7
  %spec.select.i = add i64 %20, %18
  br label %asciilib_find.exit

21:                                               ; preds = %12, %9
  %22 = icmp eq i64 %6, 0
  br i1 %22, label %asciilib_find.exit, label %23

23:                                               ; preds = %21
  %24 = tail call fastcc i64 @ucs1lib_fastsearch(ptr noundef %2, i64 noundef %3, ptr noundef %5, i64 noundef %6, i64 noundef -1, i32 noundef 1)
  %25 = icmp slt i64 %24, 0
  %26 = select i1 %25, i64 0, i64 %7
  %spec.select.i25 = add i64 %26, %24
  br label %asciilib_find.exit

27:                                               ; preds = %8
  %28 = icmp eq i64 %6, 0
  br i1 %28, label %asciilib_find.exit, label %29

29:                                               ; preds = %27
  %30 = tail call fastcc i64 @ucs2lib_fastsearch(ptr noundef %2, i64 noundef %3, ptr noundef %5, i64 noundef %6, i64 noundef -1, i32 noundef 1)
  %31 = icmp slt i64 %30, 0
  %32 = select i1 %31, i64 0, i64 %7
  %spec.select.i27 = add i64 %32, %30
  br label %asciilib_find.exit

33:                                               ; preds = %8
  %34 = icmp eq i64 %6, 0
  br i1 %34, label %asciilib_find.exit, label %35

35:                                               ; preds = %33
  %36 = tail call fastcc i64 @ucs4lib_fastsearch(ptr noundef %2, i64 noundef %3, ptr noundef %5, i64 noundef %6, i64 noundef -1, i32 noundef 1)
  %37 = icmp slt i64 %36, 0
  %38 = select i1 %37, i64 0, i64 %7
  %spec.select.i29 = add i64 %38, %36
  br label %asciilib_find.exit

39:                                               ; preds = %8
  unreachable

asciilib_find.exit:                               ; preds = %35, %33, %29, %27, %23, %21, %17, %15
  %.0 = phi i64 [ %spec.select.i, %17 ], [ %7, %15 ], [ %spec.select.i25, %23 ], [ %7, %21 ], [ %spec.select.i27, %29 ], [ %7, %27 ], [ %spec.select.i29, %35 ], [ %7, %33 ]
  ret i64 %.0
}